; Function Attrs: mustprogress uwtable
define noundef signext i8 @_ZNK6icu_756number20FormattedNumberRange12nextPositionERNS_24ConstrainedFieldPositionER10UErrorCode(ptr nocapture noundef nonnull readonly align 8 dereferenceable(20) %this, ptr noundef nonnull align 8 dereferenceable(25) %cfpos, ptr noundef nonnull align 4 dereferenceable(4) %status) unnamed_addr #1 align 2 {
entry:
  %0 = load i32, ptr %status, align 4
  %cmp.i = icmp slt i32 %0, 1
  br i1 %cmp.i, label %if.end, label %return

if.end:                                           ; preds = %entry
  %fData = getelementptr inbounds i8, ptr %this, i64 8
  %1 = load ptr, ptr %fData, align 8
  %cmp = icmp eq ptr %1, null
  br i1 %cmp, label %if.then2, label %if.end3

if.then2:                                         ; preds = %if.end
  %fErrorCode = getelementptr inbounds i8, ptr %this, i64 16
  %2 = load i32, ptr %fErrorCode, align 8
  store i32 %2, ptr %status, align 4
  br label %return

if.end3:                                          ; preds = %if.end
  %vtable = load ptr, ptr %1, align 8
  %vfn = getelementptr inbounds i8, ptr %vtable, i64 40
  %3 = load ptr, ptr %vfn, align 8
  %call5 = tail call noundef signext i8 %3(ptr noundef nonnull align 8 dereferenceable(300) %1, ptr noundef nonnull align 8 dereferenceable(25) %cfpos, ptr noundef nonnull align 4 dereferenceable(4) %status)
  br label %return

return:                                           ; preds = %entry, %if.end3, %if.then2
  %retval.0 = phi i8 [ 0, %if.then2 ], [ %call5, %if.end3 ], [ 0, %entry ]
  ret i8 %retval.0
}